; ModuleID = '12/1566.c'
source_filename = "12/1566.c"
target datalayout = "e-m:e-p270:32:32-p271:32:32-p272:64:64-i64:64-f80:128-n8:16:32:64-S128"
target triple = "x86_64-pc-linux-gnu"

@.str = private unnamed_addr constant [3 x i8] c"%d\00", align 1
@.str.1 = private unnamed_addr constant [4 x i8] c"%d\0A\00", align 1

; Function Attrs: noinline nounwind uwtable
define dso_local i32 @main() #0 {
  %1 = alloca i32, align 4
  %2 = alloca [100 x [15 x i32]], align 16
  %3 = alloca [100 x i32], align 16
  %4 = alloca i32, align 4
  %5 = alloca i32, align 4
  %6 = alloca i32, align 4
  %7 = alloca i32, align 4
  %8 = alloca i32, align 4
  %9 = alloca i32, align 4
  store i32 0, i32* %1, align 4
  %10 = bitcast [100 x i32]* %3 to i8*
  call void @llvm.memset.p0i8.i64(i8* align 16 %10, i8 0, i64 400, i1 false)
  store i32 0, i32* %8, align 4
  store i32 0, i32* %4, align 4
  br label %11

11:                                               ; preds = %55, %0
  %12 = load i32, i32* %4, align 4
  %13 = sext i32 %12 to i64
  %14 = getelementptr inbounds [100 x [15 x i32]], [100 x [15 x i32]]* %2, i64 0, i64 %13
  %15 = getelementptr inbounds [15 x i32], [15 x i32]* %14, i64 0, i64 0
  %16 = call i32 (i8*, ...) @__isoc99_scanf(i8* getelementptr inbounds ([3 x i8], [3 x i8]* @.str, i64 0, i64 0), i32* %15)
  %17 = load i32, i32* %4, align 4
  %18 = sext i32 %17 to i64
  %19 = getelementptr inbounds [100 x [15 x i32]], [100 x [15 x i32]]* %2, i64 0, i64 %18
  %20 = getelementptr inbounds [15 x i32], [15 x i32]* %19, i64 0, i64 0
  %21 = load i32, i32* %20, align 4
  %22 = icmp eq i32 %21, -1
  br i1 %22, label %23, label %24

23:                                               ; preds = %11
  br label %58

24:                                               ; preds = %11
  store i32 1, i32* %5, align 4
  br label %25

25:                                               ; preds = %48, %24
  %26 = load i32, i32* %8, align 4
  %27 = sext i32 %26 to i64
  %28 = getelementptr inbounds [100 x i32], [100 x i32]* %3, i64 0, i64 %27
  %29 = load i32, i32* %28, align 4
  %30 = add nsw i32 %29, 1
  store i32 %30, i32* %28, align 4
  %31 = load i32, i32* %4, align 4
  %32 = sext i32 %31 to i64
  %33 = getelementptr inbounds [100 x [15 x i32]], [100 x [15 x i32]]* %2, i64 0, i64 %32
  %34 = load i32, i32* %5, align 4
  %35 = sext i32 %34 to i64
  %36 = getelementptr inbounds [15 x i32], [15 x i32]* %33, i64 0, i64 %35
  %37 = call i32 (i8*, ...) @__isoc99_scanf(i8* getelementptr inbounds ([3 x i8], [3 x i8]* @.str, i64 0, i64 0), i32* %36)
  %38 = load i32, i32* %4, align 4
  %39 = sext i32 %38 to i64
  %40 = getelementptr inbounds [100 x [15 x i32]], [100 x [15 x i32]]* %2, i64 0, i64 %39
  %41 = load i32, i32* %5, align 4
  %42 = sext i32 %41 to i64
  %43 = getelementptr inbounds [15 x i32], [15 x i32]* %40, i64 0, i64 %42
  %44 = load i32, i32* %43, align 4
  %45 = icmp eq i32 %44, 0
  br i1 %45, label %46, label %47

46:                                               ; preds = %25
  br label %51

47:                                               ; preds = %25
  br label %48

48:                                               ; preds = %47
  %49 = load i32, i32* %5, align 4
  %50 = add nsw i32 %49, 1
  store i32 %50, i32* %5, align 4
  br label %25

51:                                               ; preds = %46
  %52 = load i32, i32* %8, align 4
  %53 = add nsw i32 %52, 1
  store i32 %53, i32* %8, align 4
  br label %54

54:                                               ; preds = %51
  br label %55

55:                                               ; preds = %54
  %56 = load i32, i32* %4, align 4
  %57 = add nsw i32 %56, 1
  store i32 %57, i32* %4, align 4
  br label %11

58:                                               ; preds = %23
  store i32 0, i32* %4, align 4
  br label %59

59:                                               ; preds = %113, %58
  %60 = load i32, i32* %4, align 4
  %61 = load i32, i32* %8, align 4
  %62 = icmp slt i32 %60, %61
  br i1 %62, label %63, label %116

63:                                               ; preds = %59
  store i32 0, i32* %9, align 4
  store i32 0, i32* %5, align 4
  br label %64

64:                                               ; preds = %107, %63
  %65 = load i32, i32* %5, align 4
  %66 = load i32, i32* %4, align 4
  %67 = sext i32 %66 to i64
  %68 = getelementptr inbounds [100 x i32], [100 x i32]* %3, i64 0, i64 %67
  %69 = load i32, i32* %68, align 4
  %70 = icmp slt i32 %65, %69
  br i1 %70, label %71, label %110

71:                                               ; preds = %64
  store i32 0, i32* %7, align 4
  store i32 0, i32* %6, align 4
  br label %72

72:                                               ; preds = %100, %71
  %73 = load i32, i32* %6, align 4
  %74 = load i32, i32* %4, align 4
  %75 = sext i32 %74 to i64
  %76 = getelementptr inbounds [100 x i32], [100 x i32]* %3, i64 0, i64 %75
  %77 = load i32, i32* %76, align 4
  %78 = icmp slt i32 %73, %77
  br i1 %78, label %79, label %103

79:                                               ; preds = %72
  %80 = load i32, i32* %4, align 4
  %81 = sext i32 %80 to i64
  %82 = getelementptr inbounds [100 x [15 x i32]], [100 x [15 x i32]]* %2, i64 0, i64 %81
  %83 = load i32, i32* %6, align 4
  %84 = sext i32 %83 to i64
  %85 = getelementptr inbounds [15 x i32], [15 x i32]* %82, i64 0, i64 %84
  %86 = load i32, i32* %85, align 4
  %87 = mul nsw i32 %86, 2
  %88 = load i32, i32* %4, align 4
  %89 = sext i32 %88 to i64
  %90 = getelementptr inbounds [100 x [15 x i32]], [100 x [15 x i32]]* %2, i64 0, i64 %89
  %91 = load i32, i32* %5, align 4
  %92 = sext i32 %91 to i64
  %93 = getelementptr inbounds [15 x i32], [15 x i32]* %90, i64 0, i64 %92
  %94 = load i32, i32* %93, align 4
  %95 = icmp eq i32 %87, %94
  br i1 %95, label %96, label %99

96:                                               ; preds = %79
  %97 = load i32, i32* %7, align 4
  %98 = add nsw i32 %97, 1
  store i32 %98, i32* %7, align 4
  br label %99

99:                                               ; preds = %96, %79
  br label %100

100:                                              ; preds = %99
  %101 = load i32, i32* %6, align 4
  %102 = add nsw i32 %101, 1
  store i32 %102, i32* %6, align 4
  br label %72

103:                                              ; preds = %72
  %104 = load i32, i32* %9, align 4
  %105 = load i32, i32* %7, align 4
  %106 = add nsw i32 %104, %105
  store i32 %106, i32* %9, align 4
  br label %107

107:                                              ; preds = %103
  %108 = load i32, i32* %5, align 4
  %109 = add nsw i32 %108, 1
  store i32 %109, i32* %5, align 4
  br label %64

110:                                              ; preds = %64
  %111 = load i32, i32* %9, align 4
  %112 = call i32 (i8*, ...) @printf(i8* getelementptr inbounds ([4 x i8], [4 x i8]* @.str.1, i64 0, i64 0), i32 %111)
  br label %113

113:                                              ; preds = %110
  %114 = load i32, i32* %4, align 4
  %115 = add nsw i32 %114, 1
  store i32 %115, i32* %4, align 4
  br label %59

116:                                              ; preds = %59
  ret i32 0
}

; Function Attrs: argmemonly nounwind willreturn
declare void @llvm.memset.p0i8.i64(i8* nocapture writeonly, i8, i64, i1 immarg) #1

declare dso_local i32 @__isoc99_scanf(i8*, ...) #2

declare dso_local i32 @printf(i8*, ...) #2


!llvm.module.flags = !{!0}
!llvm.ident = !{!1}

!0 = !{i32 1, !"wchar_size", i32 4}
!1 = !{!"clang version 10.0.0-4ubuntu1 "}
